target datalayout = "e-m:e-p270:32:32-p271:32:32-p272:64:64-i64:64-i128:128-f80:128-n8:16:32:64-S128"
target triple = "x86_64-pc-linux-gnu"

%struct.call_foreach_t = type { ptr, ptr, i32, i8 }
%struct.pref_module = type { ptr, ptr, ptr, ptr, ptr, ptr, ptr, ptr, i32, i32, i8, i8, i32 }
%struct.write_gui_pref_arg_t = type { ptr, i8 }
%struct.write_pref_arg_t = type { ptr, ptr }

@prefs_top_level_modules = internal global ptr null, align 8
@gui_module = internal global ptr null, align 8
@.str.1059 = private unnamed_addr constant [26 x i8] c"\0A####### %s: %s ########\0A\00", align 1
@.str.1060 = private unnamed_addr constant [22 x i8] c"\0A####### %s ########\0A\00", align 1

; Function Attrs: null_pointer_is_valid sspstrong uwtable
define internal i32 @prefs_module_list_foreach(ptr noundef %0, ptr noundef %1, ptr noundef %2, i1 noundef zeroext %3) #1 {
  %5 = alloca ptr, align 8
  %6 = alloca ptr, align 8
  %7 = alloca ptr, align 8
  %8 = alloca i8, align 1
  %9 = alloca %struct.call_foreach_t, align 8
  store ptr %0, ptr %5, align 8
  store ptr %1, ptr %6, align 8
  store ptr %2, ptr %7, align 8
  %10 = zext i1 %3 to i8
  store i8 %10, ptr %8, align 1
  call void @llvm.lifetime.start.p0(i64 24, ptr %9) #17
  %11 = load ptr, ptr %5, align 8
  %12 = icmp eq ptr %11, null
  br i1 %12, label %13, label %15

13:                                               ; preds = %4
  %14 = load ptr, ptr @prefs_top_level_modules, align 8
  store ptr %14, ptr %5, align 8
  br label %15

15:                                               ; preds = %13, %4
  %16 = load ptr, ptr %6, align 8
  %17 = getelementptr inbounds nuw %struct.call_foreach_t, ptr %9, i32 0, i32 0
  store ptr %16, ptr %17, align 8
  %18 = load ptr, ptr %7, align 8
  %19 = getelementptr inbounds nuw %struct.call_foreach_t, ptr %9, i32 0, i32 1
  store ptr %18, ptr %19, align 8
  %20 = getelementptr inbounds nuw %struct.call_foreach_t, ptr %9, i32 0, i32 2
  store i32 0, ptr %20, align 8
  %21 = load i8, ptr %8, align 1, !range !6, !noundef !7
  %22 = trunc i8 %21 to i1
  %23 = getelementptr inbounds nuw %struct.call_foreach_t, ptr %9, i32 0, i32 3
  %24 = zext i1 %22 to i8
  store i8 %24, ptr %23, align 4
  %25 = load ptr, ptr %5, align 8
  %26 = call zeroext i1 @wmem_tree_foreach(ptr noundef %25, ptr noundef @call_foreach_cb, ptr noundef %9)
  %27 = getelementptr inbounds nuw %struct.call_foreach_t, ptr %9, i32 0, i32 2
  %28 = load i32, ptr %27, align 8
  call void @llvm.lifetime.end.p0(i64 24, ptr %9) #17
  ret i32 %28
}

; Function Attrs: null_pointer_is_valid sspstrong uwtable
define i32 @prefs_modules_foreach_submodules(ptr noundef %0, ptr noundef %1, ptr noundef %2) #1 {
  %4 = alloca ptr, align 8
  %5 = alloca ptr, align 8
  %6 = alloca ptr, align 8
  store ptr %0, ptr %4, align 8
  store ptr %1, ptr %5, align 8
  store ptr %2, ptr %6, align 8
  %7 = load ptr, ptr %4, align 8
  %8 = icmp ne ptr %7, null
  br i1 %8, label %9, label %13

9:                                                ; preds = %3
  %10 = load ptr, ptr %4, align 8
  %11 = getelementptr inbounds nuw %struct.pref_module, ptr %10, i32 0, i32 7
  %12 = load ptr, ptr %11, align 8
  br label %15

13:                                               ; preds = %3
  %14 = load ptr, ptr @prefs_top_level_modules, align 8
  br label %15

15:                                               ; preds = %13, %9
  %16 = phi ptr [ %12, %9 ], [ %14, %13 ]
  %17 = load ptr, ptr %5, align 8
  %18 = load ptr, ptr %6, align 8
  %19 = call i32 @prefs_module_list_foreach(ptr noundef %16, ptr noundef %17, ptr noundef %18, i1 noundef zeroext true)
  ret i32 %19
}

; Function Attrs: null_pointer_is_valid sspstrong uwtable
define internal i32 @num_non_uat_prefs(ptr noundef %0) #1 {
  %2 = alloca ptr, align 8
  %3 = alloca i32, align 4
  store ptr %0, ptr %2, align 8
  call void @llvm.lifetime.start.p0(i64 4, ptr %3) #17
  store i32 0, ptr %3, align 4
  %4 = load ptr, ptr %2, align 8
  %5 = getelementptr inbounds nuw %struct.pref_module, ptr %4, i32 0, i32 5
  %6 = load ptr, ptr %5, align 8
  call void @g_list_foreach(ptr noundef %6, ptr noundef @count_non_uat_pref, ptr noundef %3)
  %7 = load i32, ptr %3, align 4
  call void @llvm.lifetime.end.p0(i64 4, ptr %3) #17
  ret i32 %7
}

; Function Attrs: null_pointer_is_valid sspstrong uwtable
define zeroext i1 @prefs_module_has_submodules(ptr noundef %0) #1 {
  %2 = alloca i1, align 1
  %3 = alloca ptr, align 8
  store ptr %0, ptr %3, align 8
  %4 = load ptr, ptr %3, align 8
  %5 = getelementptr inbounds nuw %struct.pref_module, ptr %4, i32 0, i32 7
  %6 = load ptr, ptr %5, align 8
  %7 = icmp eq ptr %6, null
  br i1 %7, label %8, label %9

8:                                                ; preds = %1
  store i1 false, ptr %2, align 1
  br label %16

9:                                                ; preds = %1
  %10 = load ptr, ptr %3, align 8
  %11 = getelementptr inbounds nuw %struct.pref_module, ptr %10, i32 0, i32 7
  %12 = load ptr, ptr %11, align 8
  %13 = call zeroext i1 @wmem_tree_is_empty(ptr noundef %12)
  br i1 %13, label %14, label %15

14:                                               ; preds = %9
  store i1 false, ptr %2, align 1
  br label %16

15:                                               ; preds = %9
  store i1 true, ptr %2, align 1
  br label %16

16:                                               ; preds = %15, %14, %8
  %17 = load i1, ptr %2, align 1
  ret i1 %17
}

; Function Attrs: null_pointer_is_valid sspstrong uwtable
define internal i32 @write_module_prefs(ptr noundef %0, ptr noundef %1) #1 {
  %3 = alloca i32, align 4
  %4 = alloca ptr, align 8
  %5 = alloca ptr, align 8
  %6 = alloca ptr, align 8
  %7 = alloca %struct.write_pref_arg_t, align 8
  %8 = alloca i32, align 4
  store ptr %0, ptr %4, align 8
  store ptr %1, ptr %5, align 8
  call void @llvm.lifetime.start.p0(i64 8, ptr %6) #17
  %9 = load ptr, ptr %5, align 8
  store ptr %9, ptr %6, align 8
  call void @llvm.lifetime.start.p0(i64 16, ptr %7) #17
  %10 = load ptr, ptr %4, align 8
  %11 = load ptr, ptr @gui_module, align 8
  %12 = icmp eq ptr %10, %11
  br i1 %12, label %13, label %21

13:                                               ; preds = %2
  %14 = load ptr, ptr %6, align 8
  %15 = getelementptr inbounds nuw %struct.write_gui_pref_arg_t, ptr %14, i32 0, i32 1
  %16 = load i8, ptr %15, align 8, !range !6, !noundef !7
  %17 = trunc i8 %16 to i1
  %18 = zext i1 %17 to i32
  %19 = icmp ne i32 %18, 1
  br i1 %19, label %20, label %21

20:                                               ; preds = %13
  store i32 0, ptr %3, align 4
  store i32 1, ptr %8, align 4
  br label %94

21:                                               ; preds = %13, %2
  %22 = load ptr, ptr %4, align 8
  %23 = getelementptr inbounds nuw %struct.pref_module, ptr %22, i32 0, i32 6
  %24 = load ptr, ptr %23, align 8
  %25 = icmp eq ptr %24, null
  br i1 %25, label %32, label %26

26:                                               ; preds = %21
  %27 = load ptr, ptr %4, align 8
  %28 = getelementptr inbounds nuw %struct.pref_module, ptr %27, i32 0, i32 6
  %29 = load ptr, ptr %28, align 8
  %30 = load ptr, ptr @gui_module, align 8
  %31 = icmp eq ptr %29, %30
  br i1 %31, label %32, label %76

32:                                               ; preds = %26, %21
  %33 = load ptr, ptr %4, align 8
  %34 = call zeroext i1 @prefs_module_has_submodules(ptr noundef %33)
  br i1 %34, label %44, label %35

35:                                               ; preds = %32
  %36 = load ptr, ptr %4, align 8
  %37 = call i32 @num_non_uat_prefs(ptr noundef %36)
  %38 = icmp sgt i32 %37, 0
  br i1 %38, label %44, label %39

39:                                               ; preds = %35
  %40 = load ptr, ptr %4, align 8
  %41 = getelementptr inbounds nuw %struct.pref_module, ptr %40, i32 0, i32 0
  %42 = load ptr, ptr %41, align 8
  %43 = icmp eq ptr %42, null
  br i1 %43, label %44, label %76

44:                                               ; preds = %39, %35, %32
  %45 = load ptr, ptr %4, align 8
  %46 = getelementptr inbounds nuw %struct.pref_module, ptr %45, i32 0, i32 0
  %47 = load ptr, ptr %46, align 8
  %48 = icmp eq ptr %47, null
  br i1 %48, label %49, label %67

49:                                               ; preds = %44
  %50 = load ptr, ptr %4, align 8
  %51 = getelementptr inbounds nuw %struct.pref_module, ptr %50, i32 0, i32 6
  %52 = load ptr, ptr %51, align 8
  %53 = icmp ne ptr %52, null
  br i1 %53, label %54, label %67

54:                                               ; preds = %49
  %55 = load ptr, ptr %6, align 8
  %56 = getelementptr inbounds nuw %struct.write_gui_pref_arg_t, ptr %55, i32 0, i32 0
  %57 = load ptr, ptr %56, align 8
  %58 = load ptr, ptr %4, align 8
  %59 = getelementptr inbounds nuw %struct.pref_module, ptr %58, i32 0, i32 6
  %60 = load ptr, ptr %59, align 8
  %61 = getelementptr inbounds nuw %struct.pref_module, ptr %60, i32 0, i32 1
  %62 = load ptr, ptr %61, align 8
  %63 = load ptr, ptr %4, align 8
  %64 = getelementptr inbounds nuw %struct.pref_module, ptr %63, i32 0, i32 1
  %65 = load ptr, ptr %64, align 8
  %66 = call i32 (ptr, i32, ptr, ...) @__fprintf_chk(ptr noundef %57, i32 noundef 2, ptr noundef @.str.1059, ptr noundef %62, ptr noundef %65)
  br label %75

67:                                               ; preds = %49, %44
  %68 = load ptr, ptr %6, align 8
  %69 = getelementptr inbounds nuw %struct.write_gui_pref_arg_t, ptr %68, i32 0, i32 0
  %70 = load ptr, ptr %69, align 8
  %71 = load ptr, ptr %4, align 8
  %72 = getelementptr inbounds nuw %struct.pref_module, ptr %71, i32 0, i32 1
  %73 = load ptr, ptr %72, align 8
  %74 = call i32 (ptr, i32, ptr, ...) @__fprintf_chk(ptr noundef %70, i32 noundef 2, ptr noundef @.str.1060, ptr noundef %73)
  br label %75

75:                                               ; preds = %67, %54
  br label %76

76:                                               ; preds = %75, %39, %26
  %77 = load ptr, ptr %4, align 8
  %78 = getelementptr inbounds nuw %struct.write_pref_arg_t, ptr %7, i32 0, i32 0
  store ptr %77, ptr %78, align 8
  %79 = load ptr, ptr %6, align 8
  %80 = getelementptr inbounds nuw %struct.write_gui_pref_arg_t, ptr %79, i32 0, i32 0
  %81 = load ptr, ptr %80, align 8
  %82 = getelementptr inbounds nuw %struct.write_pref_arg_t, ptr %7, i32 0, i32 1
  store ptr %81, ptr %82, align 8
  %83 = getelementptr inbounds nuw %struct.write_pref_arg_t, ptr %7, i32 0, i32 0
  %84 = load ptr, ptr %83, align 8
  %85 = getelementptr inbounds nuw %struct.pref_module, ptr %84, i32 0, i32 5
  %86 = load ptr, ptr %85, align 8
  call void @g_list_foreach(ptr noundef %86, ptr noundef @write_pref, ptr noundef %7)
  %87 = load ptr, ptr %4, align 8
  %88 = call zeroext i1 @prefs_module_has_submodules(ptr noundef %87)
  br i1 %88, label %89, label %93

89:                                               ; preds = %76
  %90 = load ptr, ptr %4, align 8
  %91 = load ptr, ptr %5, align 8
  %92 = call i32 @prefs_modules_foreach_submodules(ptr noundef %90, ptr noundef @write_module_prefs, ptr noundef %91)
  store i32 %92, ptr %3, align 4
  store i32 1, ptr %8, align 4
  br label %94

93:                                               ; preds = %76
  store i32 0, ptr %3, align 4
  store i32 1, ptr %8, align 4
  br label %94

94:                                               ; preds = %93, %89, %20
  call void @llvm.lifetime.end.p0(i64 16, ptr %7) #17
  call void @llvm.lifetime.end.p0(i64 8, ptr %6) #17
  %95 = load i32, ptr %3, align 4
  ret i32 %95
}