; Function Attrs: null_pointer_is_valid sspstrong uwtable
define internal i32 @write_module_prefs(ptr noundef %0, ptr noundef %1) #1 {
  %3 = alloca %struct.call_foreach_t, align 8
  %4 = alloca i32, align 4
  %5 = alloca %struct.write_pref_arg_t, align 8
  call void @llvm.lifetime.start.p0(i64 16, ptr nonnull %5) #25
  %6 = load ptr, ptr @gui_module, align 8
  %7 = icmp eq ptr %0, %6
  br i1 %7, label %8, label %11

8:                                                ; preds = %2
  %9 = getelementptr inbounds nuw i8, ptr %1, i64 8
  %10 = load i8, ptr %9, align 8, !range !6, !noundef !7
  %.not.not = icmp eq i8 %10, 0
  br i1 %.not.not, label %prefs_module_has_submodules.exit25.thread, label %11

11:                                               ; preds = %8, %2
  %12 = getelementptr inbounds nuw i8, ptr %0, i64 48
  %13 = load ptr, ptr %12, align 8
  %14 = icmp eq ptr %13, null
  %15 = icmp eq ptr %13, %6
  %or.cond = or i1 %14, %15
  br i1 %or.cond, label %16, label %42

16:                                               ; preds = %11
  %17 = getelementptr inbounds nuw i8, ptr %0, i64 56
  %18 = load ptr, ptr %17, align 8
  %19 = icmp eq ptr %18, null
  br i1 %19, label %prefs_module_has_submodules.exit.thread, label %prefs_module_has_submodules.exit

prefs_module_has_submodules.exit:                 ; preds = %16
  %20 = tail call zeroext i1 @wmem_tree_is_empty(ptr noundef nonnull %18)
  br i1 %20, label %prefs_module_has_submodules.exit.thread, label %27

prefs_module_has_submodules.exit.thread:          ; preds = %16, %prefs_module_has_submodules.exit
  %21 = getelementptr i8, ptr %0, i64 40
  %.val = load ptr, ptr %21, align 8
  call void @llvm.lifetime.start.p0(i64 4, ptr nonnull %4) #25
  store i32 0, ptr %4, align 4
  call void @g_list_foreach(ptr noundef %.val, ptr noundef nonnull @count_non_uat_pref, ptr noundef nonnull %4)
  %22 = load i32, ptr %4, align 4
  call void @llvm.lifetime.end.p0(i64 4, ptr nonnull %4) #25
  %23 = icmp sgt i32 %22, 0
  br i1 %23, label %27, label %24

24:                                               ; preds = %prefs_module_has_submodules.exit.thread
  %25 = load ptr, ptr %0, align 8
  %26 = icmp eq ptr %25, null
  br i1 %26, label %.thread, label %42

27:                                               ; preds = %prefs_module_has_submodules.exit.thread, %prefs_module_has_submodules.exit
  %.pr = load ptr, ptr %0, align 8
  %28 = icmp eq ptr %.pr, null
  br i1 %28, label %.thread, label %37

.thread:                                          ; preds = %24, %27
  %29 = load ptr, ptr %12, align 8
  %.not = icmp eq ptr %29, null
  br i1 %.not, label %37, label %30

30:                                               ; preds = %.thread
  %31 = load ptr, ptr %1, align 8
  %32 = getelementptr inbounds nuw i8, ptr %29, i64 8
  %33 = load ptr, ptr %32, align 8
  %34 = getelementptr inbounds nuw i8, ptr %0, i64 8
  %35 = load ptr, ptr %34, align 8
  %36 = call i32 (ptr, i32, ptr, ...) @__fprintf_chk(ptr noundef %31, i32 noundef 2, ptr noundef nonnull @.str.1059, ptr noundef %33, ptr noundef %35)
  br label %42

37:                                               ; preds = %.thread, %27
  %38 = load ptr, ptr %1, align 8
  %39 = getelementptr inbounds nuw i8, ptr %0, i64 8
  %40 = load ptr, ptr %39, align 8
  %41 = call i32 (ptr, i32, ptr, ...) @__fprintf_chk(ptr noundef %38, i32 noundef 2, ptr noundef nonnull @.str.1060, ptr noundef %40)
  br label %42

42:                                               ; preds = %11, %30, %37, %24
  store ptr %0, ptr %5, align 8
  %43 = load ptr, ptr %1, align 8
  %44 = getelementptr inbounds nuw i8, ptr %5, i64 8
  store ptr %43, ptr %44, align 8
  %45 = getelementptr inbounds nuw i8, ptr %0, i64 40
  %46 = load ptr, ptr %45, align 8
  call void @g_list_foreach(ptr noundef %46, ptr noundef nonnull @write_pref, ptr noundef nonnull %5)
  %47 = getelementptr inbounds nuw i8, ptr %0, i64 56
  %48 = load ptr, ptr %47, align 8
  %49 = icmp eq ptr %48, null
  br i1 %49, label %prefs_module_has_submodules.exit25.thread, label %prefs_module_has_submodules.exit25

prefs_module_has_submodules.exit25:               ; preds = %42
  %50 = call zeroext i1 @wmem_tree_is_empty(ptr noundef nonnull %48)
  br i1 %50, label %prefs_module_has_submodules.exit25.thread, label %51

51:                                               ; preds = %prefs_module_has_submodules.exit25
  %.not.i = icmp eq ptr %0, null
  %.in.i = select i1 %.not.i, ptr @prefs_top_level_modules, ptr %47
  %52 = load ptr, ptr %.in.i, align 8
  call void @llvm.lifetime.start.p0(i64 24, ptr nonnull %3) #25
  %53 = icmp eq ptr %52, null
  %54 = load ptr, ptr @prefs_top_level_modules, align 8
  %spec.select.i.i = select i1 %53, ptr %54, ptr %52
  store ptr @write_module_prefs, ptr %3, align 8
  %55 = getelementptr inbounds nuw i8, ptr %3, i64 8
  store ptr %1, ptr %55, align 8
  %56 = getelementptr inbounds nuw i8, ptr %3, i64 16
  store i32 0, ptr %56, align 8
  %57 = getelementptr inbounds nuw i8, ptr %3, i64 20
  store i8 1, ptr %57, align 4
  %58 = call zeroext i1 @wmem_tree_foreach(ptr noundef %spec.select.i.i, ptr noundef nonnull @call_foreach_cb, ptr noundef nonnull %3)
  %59 = load i32, ptr %56, align 8
  call void @llvm.lifetime.end.p0(i64 24, ptr nonnull %3) #25
  br label %prefs_module_has_submodules.exit25.thread

prefs_module_has_submodules.exit25.thread:        ; preds = %42, %prefs_module_has_submodules.exit25, %8, %51
  %.0 = phi i32 [ %59, %51 ], [ 0, %8 ], [ 0, %prefs_module_has_submodules.exit25 ], [ 0, %42 ]
  call void @llvm.lifetime.end.p0(i64 16, ptr nonnull %5) #25
  ret i32 %.0
}